; Function Attrs: nounwind uwtable
define internal void @plpgsql_param_eval_generic(ptr readnone captures(none) %0, ptr noundef readonly captures(none) %1, ptr noundef readonly captures(none) %2) #0 {
  %4 = alloca i32, align 4
  %5 = alloca i32, align 4
  %6 = getelementptr inbounds nuw i8, ptr %1, i64 48
  %7 = load i32, ptr %6, align 8
  %8 = add i32 %7, -1
  call void @llvm.lifetime.start.p0(i64 4, ptr nonnull %4) #12
  call void @llvm.lifetime.start.p0(i64 4, ptr nonnull %5) #12
  %9 = getelementptr inbounds nuw i8, ptr %2, i64 56
  %10 = load ptr, ptr %9, align 8
  %11 = getelementptr inbounds nuw i8, ptr %10, i64 8
  %12 = load ptr, ptr %11, align 8
  %13 = getelementptr inbounds nuw i8, ptr %12, i64 112
  %14 = load ptr, ptr %13, align 8
  %15 = sext i32 %8 to i64
  %16 = getelementptr inbounds ptr, ptr %14, i64 %15
  %17 = load ptr, ptr %16, align 8
  %18 = getelementptr inbounds nuw i8, ptr %1, i64 8
  %19 = load ptr, ptr %18, align 8
  %20 = getelementptr inbounds nuw i8, ptr %1, i64 16
  %21 = load ptr, ptr %20, align 8
  call void @exec_eval_datum(ptr noundef %12, ptr noundef %17, ptr noundef nonnull %4, ptr noundef nonnull %5, ptr noundef %19, ptr noundef %21)
  %22 = load i32, ptr %4, align 4
  %23 = getelementptr inbounds nuw i8, ptr %1, i64 52
  %24 = load i32, ptr %23, align 4
  %.not = icmp eq i32 %22, %24
  br i1 %.not, label %33, label %25, !prof !7

25:                                               ; preds = %3
  %26 = tail call zeroext i1 @errstart_cold(i32 noundef 21, ptr noundef nonnull @.str.2) #13
  tail call void @llvm.assume(i1 %26)
  %27 = tail call i32 @errcode(i32 noundef 67141764) #12
  %28 = load i32, ptr %6, align 8
  %29 = tail call ptr @format_type_be(i32 noundef %22) #12
  %30 = load i32, ptr %23, align 4
  %31 = tail call ptr @format_type_be(i32 noundef %30) #12
  %32 = tail call i32 (ptr, ...) @errmsg(ptr noundef nonnull @.str.137, i32 noundef %28, ptr noundef %29, ptr noundef %31) #12
  tail call void @errfinish(ptr noundef nonnull @.str.4, i32 noundef 6853, ptr noundef nonnull @__func__.plpgsql_param_eval_generic) #12
  unreachable

33:                                               ; preds = %3
  call void @llvm.lifetime.end.p0(i64 4, ptr nonnull %5) #12
  call void @llvm.lifetime.end.p0(i64 4, ptr nonnull %4) #12
  ret void
}